target datalayout = "e-m:e-p270:32:32-p271:32:32-p272:64:64-i64:64-i128:128-f80:128-n8:16:32:64-S128"
target triple = "x86_64-pc-linux-gnu"

%"class.ODDLParser::Value" = type { i32, i64, ptr, ptr }

@_ZN10ODDLParser5ValueC1ENS0_9ValueTypeE = hidden unnamed_addr alias void (ptr, i32), ptr @_ZN10ODDLParser5ValueC2ENS0_9ValueTypeE

; Function Attrs: mustprogress uwtable
define hidden noundef ptr @_ZN10ODDLParser14ValueAllocator13allocPrimDataENS_5Value9ValueTypeEm(i32 noundef %0, i64 noundef %1) #3 align 2 personality ptr @__gxx_personality_v0 {
  %3 = alloca ptr, align 8
  %4 = alloca i32, align 4
  %5 = alloca i64, align 8
  %6 = alloca ptr, align 8
  %7 = alloca ptr, align 8
  %8 = alloca i32, align 4
  store i32 %0, ptr %4, align 4
  store i64 %1, ptr %5, align 8
  %9 = load i32, ptr %4, align 4
  %10 = icmp eq i32 %9, -1
  br i1 %10, label %14, label %11

11:                                               ; preds = %2
  %12 = load i32, ptr %4, align 4
  %13 = icmp eq i32 14, %12
  br i1 %13, label %14, label %15

14:                                               ; preds = %11, %2
  store ptr null, ptr %3, align 8
  br label %91

15:                                               ; preds = %11
  call void @llvm.lifetime.start.p0(i64 8, ptr %6) #1
  %16 = call noalias noundef nonnull ptr @_Znwm(i64 noundef 32) #18
  %17 = load i32, ptr %4, align 4
  invoke void @_ZN10ODDLParser5ValueC1ENS0_9ValueTypeE(ptr noundef nonnull align 8 dereferenceable(32) %16, i32 noundef %17)
          to label %18 unwind label %20

18:                                               ; preds = %15
  store ptr %16, ptr %6, align 8
  %19 = load i32, ptr %4, align 4
  switch i32 %19, label %70 [
    i32 0, label %24
    i32 1, label %27
    i32 2, label %30
    i32 3, label %33
    i32 4, label %36
    i32 5, label %39
    i32 6, label %42
    i32 7, label %45
    i32 8, label %48
    i32 9, label %51
    i32 10, label %54
    i32 11, label %57
    i32 12, label %60
    i32 13, label %66
    i32 -1, label %69
    i32 14, label %69
  ]

20:                                               ; preds = %15
  %21 = landingpad { ptr, i32 }
          cleanup
  %22 = extractvalue { ptr, i32 } %21, 0
  store ptr %22, ptr %7, align 8
  %23 = extractvalue { ptr, i32 } %21, 1
  store i32 %23, ptr %8, align 4
  call void @_ZdlPvm(ptr noundef %16, i64 noundef 32) #17
  call void @llvm.lifetime.end.p0(i64 8, ptr %6) #1
  br label %93

24:                                               ; preds = %18
  %25 = load ptr, ptr %6, align 8
  %26 = getelementptr inbounds nuw %"class.ODDLParser::Value", ptr %25, i32 0, i32 1
  store i64 1, ptr %26, align 8
  br label %71

27:                                               ; preds = %18
  %28 = load ptr, ptr %6, align 8
  %29 = getelementptr inbounds nuw %"class.ODDLParser::Value", ptr %28, i32 0, i32 1
  store i64 1, ptr %29, align 8
  br label %71

30:                                               ; preds = %18
  %31 = load ptr, ptr %6, align 8
  %32 = getelementptr inbounds nuw %"class.ODDLParser::Value", ptr %31, i32 0, i32 1
  store i64 2, ptr %32, align 8
  br label %71

33:                                               ; preds = %18
  %34 = load ptr, ptr %6, align 8
  %35 = getelementptr inbounds nuw %"class.ODDLParser::Value", ptr %34, i32 0, i32 1
  store i64 4, ptr %35, align 8
  br label %71

36:                                               ; preds = %18
  %37 = load ptr, ptr %6, align 8
  %38 = getelementptr inbounds nuw %"class.ODDLParser::Value", ptr %37, i32 0, i32 1
  store i64 8, ptr %38, align 8
  br label %71

39:                                               ; preds = %18
  %40 = load ptr, ptr %6, align 8
  %41 = getelementptr inbounds nuw %"class.ODDLParser::Value", ptr %40, i32 0, i32 1
  store i64 1, ptr %41, align 8
  br label %71

42:                                               ; preds = %18
  %43 = load ptr, ptr %6, align 8
  %44 = getelementptr inbounds nuw %"class.ODDLParser::Value", ptr %43, i32 0, i32 1
  store i64 2, ptr %44, align 8
  br label %71

45:                                               ; preds = %18
  %46 = load ptr, ptr %6, align 8
  %47 = getelementptr inbounds nuw %"class.ODDLParser::Value", ptr %46, i32 0, i32 1
  store i64 4, ptr %47, align 8
  br label %71

48:                                               ; preds = %18
  %49 = load ptr, ptr %6, align 8
  %50 = getelementptr inbounds nuw %"class.ODDLParser::Value", ptr %49, i32 0, i32 1
  store i64 8, ptr %50, align 8
  br label %71

51:                                               ; preds = %18
  %52 = load ptr, ptr %6, align 8
  %53 = getelementptr inbounds nuw %"class.ODDLParser::Value", ptr %52, i32 0, i32 1
  store i64 2, ptr %53, align 8
  br label %71

54:                                               ; preds = %18
  %55 = load ptr, ptr %6, align 8
  %56 = getelementptr inbounds nuw %"class.ODDLParser::Value", ptr %55, i32 0, i32 1
  store i64 4, ptr %56, align 8
  br label %71

57:                                               ; preds = %18
  %58 = load ptr, ptr %6, align 8
  %59 = getelementptr inbounds nuw %"class.ODDLParser::Value", ptr %58, i32 0, i32 1
  store i64 8, ptr %59, align 8
  br label %71

60:                                               ; preds = %18
  %61 = load i64, ptr %5, align 8
  %62 = add i64 %61, 1
  %63 = mul i64 1, %62
  %64 = load ptr, ptr %6, align 8
  %65 = getelementptr inbounds nuw %"class.ODDLParser::Value", ptr %64, i32 0, i32 1
  store i64 %63, ptr %65, align 8
  br label %71

66:                                               ; preds = %18
  %67 = load ptr, ptr %6, align 8
  %68 = getelementptr inbounds nuw %"class.ODDLParser::Value", ptr %67, i32 0, i32 1
  store i64 0, ptr %68, align 8
  br label %71

69:                                               ; preds = %18, %18
  br label %70

70:                                               ; preds = %18, %69
  br label %71

71:                                               ; preds = %70, %66, %60, %57, %54, %51, %48, %45, %42, %39, %36, %33, %30, %27, %24
  %72 = load ptr, ptr %6, align 8
  %73 = getelementptr inbounds nuw %"class.ODDLParser::Value", ptr %72, i32 0, i32 1
  %74 = load i64, ptr %73, align 8
  %75 = icmp ne i64 %74, 0
  br i1 %75, label %76, label %89

76:                                               ; preds = %71
  %77 = load ptr, ptr %6, align 8
  %78 = getelementptr inbounds nuw %"class.ODDLParser::Value", ptr %77, i32 0, i32 1
  %79 = load i64, ptr %78, align 8
  %80 = call noalias noundef nonnull ptr @_Znam(i64 noundef %79) #18
  %81 = load ptr, ptr %6, align 8
  %82 = getelementptr inbounds nuw %"class.ODDLParser::Value", ptr %81, i32 0, i32 2
  store ptr %80, ptr %82, align 8
  %83 = load ptr, ptr %6, align 8
  %84 = getelementptr inbounds nuw %"class.ODDLParser::Value", ptr %83, i32 0, i32 2
  %85 = load ptr, ptr %84, align 8
  %86 = load ptr, ptr %6, align 8
  %87 = getelementptr inbounds nuw %"class.ODDLParser::Value", ptr %86, i32 0, i32 1
  %88 = load i64, ptr %87, align 8
  call void @llvm.memset.p0.i64(ptr align 1 %85, i8 0, i64 %88, i1 false)
  br label %89

89:                                               ; preds = %76, %71
  %90 = load ptr, ptr %6, align 8
  store ptr %90, ptr %3, align 8
  call void @llvm.lifetime.end.p0(i64 8, ptr %6) #1
  br label %91

91:                                               ; preds = %89, %14
  %92 = load ptr, ptr %3, align 8
  ret ptr %92

93:                                               ; preds = %20
  %94 = load ptr, ptr %7, align 8
  %95 = load i32, ptr %8, align 4
  %96 = insertvalue { ptr, i32 } poison, ptr %94, 0
  %97 = insertvalue { ptr, i32 } %96, i32 %95, 1
  resume { ptr, i32 } %97
}