; Function Attrs: mustprogress uwtable
define hidden noalias noundef ptr @_ZN10ODDLParser14ValueAllocator13allocPrimDataENS_5Value9ValueTypeEm(i32 noundef %0, i64 noundef %1) local_unnamed_addr #12 align 2 personality ptr @__gxx_personality_v0 {
  switch i32 %0, label %3 [
    i32 -1, label %.thread32
    i32 14, label %.thread32
  ]

3:                                                ; preds = %2
  %4 = tail call noalias noundef nonnull dereferenceable(32) ptr @_Znwm(i64 noundef 32) #27
  store i32 %0, ptr %4, align 8
  %5 = getelementptr inbounds nuw i8, ptr %4, i64 8
  tail call void @llvm.memset.p0.i64(ptr noundef nonnull align 8 dereferenceable(24) %5, i8 0, i64 24, i1 false)
  switch i32 %0, label %.thread32 [
    i32 0, label %.thread.sink.split
    i32 1, label %.thread.sink.split
    i32 2, label %6
    i32 3, label %7
    i32 4, label %8
    i32 5, label %.thread.sink.split
    i32 6, label %6
    i32 7, label %7
    i32 8, label %8
    i32 9, label %6
    i32 10, label %7
    i32 11, label %8
    i32 12, label %9
  ]

6:                                                ; preds = %3, %3, %3
  br label %.thread.sink.split

7:                                                ; preds = %3, %3, %3
  br label %.thread.sink.split

8:                                                ; preds = %3, %3, %3
  br label %.thread.sink.split

9:                                                ; preds = %3
  %10 = add i64 %1, 1
  store i64 %10, ptr %5, align 8
  %.not = icmp eq i64 %10, 0
  br i1 %.not, label %.thread32, label %.thread

.thread.sink.split:                               ; preds = %3, %3, %3, %8, %7, %6
  %.sink = phi i64 [ 2, %6 ], [ 4, %7 ], [ 8, %8 ], [ 1, %3 ], [ 1, %3 ], [ 1, %3 ]
  store i64 %.sink, ptr %5, align 8
  br label %.thread

.thread:                                          ; preds = %.thread.sink.split, %9
  %11 = phi i64 [ %10, %9 ], [ %.sink, %.thread.sink.split ]
  %12 = tail call noalias noundef nonnull ptr @_Znam(i64 noundef %11) #27
  %13 = getelementptr inbounds nuw i8, ptr %4, i64 16
  store ptr %12, ptr %13, align 8
  tail call void @llvm.memset.p0.i64(ptr noundef nonnull align 1 dereferenceable(1) %12, i8 0, i64 %11, i1 false)
  br label %.thread32

.thread32:                                        ; preds = %3, %9, %.thread, %2, %2
  %.0 = phi ptr [ null, %2 ], [ null, %2 ], [ %4, %.thread ], [ %4, %9 ], [ %4, %3 ]
  ret ptr %.0
}